target datalayout = "e-m:e-p270:32:32-p271:32:32-p272:64:64-i64:64-i128:128-f80:128-n8:16:32:64-S128"
target triple = "x86_64-pc-linux-gnu"

%"class.rocksdb::FilterBlockReaderCommon" = type <{ %"class.rocksdb::FilterBlockReader", ptr, %"class.rocksdb::CachableEntry", i64, i8, [7 x i8] }>
%"class.rocksdb::FilterBlockReader" = type { ptr }
%"class.rocksdb::CachableEntry" = type <{ ptr, ptr, ptr, i8, [7 x i8] }>

; Function Attrs: mustprogress nounwind uwtable
define linkonce_odr void @_ZN7rocksdb13CachableEntryINS_21ParsedFullFilterBlockEE11ResetFieldsEv(ptr noundef nonnull align 8 dereferenceable(25) %0) #3 comdat align 2 {
  %2 = alloca ptr, align 8
  store ptr %0, ptr %2, align 8, !tbaa !63
  %3 = load ptr, ptr %2, align 8
  %4 = getelementptr inbounds nuw %"class.rocksdb::CachableEntry", ptr %3, i32 0, i32 0
  store ptr null, ptr %4, align 8, !tbaa !91
  %5 = getelementptr inbounds nuw %"class.rocksdb::CachableEntry", ptr %3, i32 0, i32 1
  store ptr null, ptr %5, align 8, !tbaa !92
  %6 = getelementptr inbounds nuw %"class.rocksdb::CachableEntry", ptr %3, i32 0, i32 2
  store ptr null, ptr %6, align 8, !tbaa !93
  %7 = getelementptr inbounds nuw %"class.rocksdb::CachableEntry", ptr %3, i32 0, i32 3
  store i8 0, ptr %7, align 8, !tbaa !94
  ret void
}

; Function Attrs: mustprogress nounwind uwtable
define linkonce_odr void @_ZN7rocksdb17FilterBlockReaderD2Ev(ptr noundef nonnull align 8 dereferenceable(8) %0) unnamed_addr #3 comdat align 2 {
  %2 = alloca ptr, align 8
  store ptr %0, ptr %2, align 8, !tbaa !97
  ret void
}

; Function Attrs: mustprogress nounwind uwtable
define linkonce_odr void @_ZN7rocksdb13CachableEntryINS_21ParsedFullFilterBlockEEC2EOS2_(ptr noundef nonnull align 8 dereferenceable(25) %0, ptr noundef nonnull align 8 dereferenceable(25) %1) unnamed_addr #3 comdat align 2 {
  %3 = alloca ptr, align 8
  %4 = alloca ptr, align 8
  store ptr %0, ptr %3, align 8, !tbaa !63
  store ptr %1, ptr %4, align 8, !tbaa !63
  %5 = load ptr, ptr %3, align 8
  %6 = getelementptr inbounds nuw %"class.rocksdb::CachableEntry", ptr %5, i32 0, i32 0
  %7 = load ptr, ptr %4, align 8, !tbaa !63
  %8 = getelementptr inbounds nuw %"class.rocksdb::CachableEntry", ptr %7, i32 0, i32 0
  %9 = load ptr, ptr %8, align 8, !tbaa !91
  store ptr %9, ptr %6, align 8, !tbaa !91
  %10 = getelementptr inbounds nuw %"class.rocksdb::CachableEntry", ptr %5, i32 0, i32 1
  %11 = load ptr, ptr %4, align 8, !tbaa !63
  %12 = getelementptr inbounds nuw %"class.rocksdb::CachableEntry", ptr %11, i32 0, i32 1
  %13 = load ptr, ptr %12, align 8, !tbaa !92
  store ptr %13, ptr %10, align 8, !tbaa !92
  %14 = getelementptr inbounds nuw %"class.rocksdb::CachableEntry", ptr %5, i32 0, i32 2
  %15 = load ptr, ptr %4, align 8, !tbaa !63
  %16 = getelementptr inbounds nuw %"class.rocksdb::CachableEntry", ptr %15, i32 0, i32 2
  %17 = load ptr, ptr %16, align 8, !tbaa !93
  store ptr %17, ptr %14, align 8, !tbaa !93
  %18 = getelementptr inbounds nuw %"class.rocksdb::CachableEntry", ptr %5, i32 0, i32 3
  %19 = load ptr, ptr %4, align 8, !tbaa !63
  %20 = getelementptr inbounds nuw %"class.rocksdb::CachableEntry", ptr %19, i32 0, i32 3
  %21 = load i8, ptr %20, align 8, !tbaa !94, !range !43, !noundef !44
  %22 = trunc i8 %21 to i1
  %23 = zext i1 %22 to i8
  store i8 %23, ptr %18, align 8, !tbaa !94
  %24 = load ptr, ptr %4, align 8, !tbaa !63
  call void @_ZN7rocksdb13CachableEntryINS_21ParsedFullFilterBlockEE11ResetFieldsEv(ptr noundef nonnull align 8 dereferenceable(25) %24) #4
  ret void
}

; Function Attrs: mustprogress nounwind uwtable
define linkonce_odr void @_ZN7rocksdb17FilterBlockReaderC2Ev(ptr noundef nonnull align 8 dereferenceable(8) %0) unnamed_addr #3 comdat align 2 {
  %2 = alloca ptr, align 8
  store ptr %0, ptr %2, align 8, !tbaa !97
  %3 = load ptr, ptr %2, align 8
  store ptr getelementptr inbounds inrange(-16, 88) ({ [13 x ptr] }, ptr @_ZTVN7rocksdb17FilterBlockReaderE, i32 0, i32 0, i32 2), ptr %3, align 8, !tbaa !25
  ret void
}

; Function Attrs: mustprogress uwtable
define linkonce_odr void @_ZN7rocksdb23FilterBlockReaderCommonINS_21ParsedFullFilterBlockEEC2EPKNS_15BlockBasedTableEONS_13CachableEntryIS1_EE(ptr noundef nonnull align 8 dereferenceable(57) %0, ptr noundef %1, ptr noundef nonnull align 8 dereferenceable(25) %2) unnamed_addr #5 comdat align 2 personality ptr @__gxx_personality_v0 {
  %4 = alloca ptr, align 8
  %5 = alloca ptr, align 8
  %6 = alloca ptr, align 8
  %7 = alloca ptr, align 8
  %8 = alloca ptr, align 8
  %9 = alloca i32, align 4
  store ptr %0, ptr %4, align 8, !tbaa !65
  store ptr %1, ptr %5, align 8, !tbaa !61
  store ptr %2, ptr %6, align 8, !tbaa !63
  %10 = load ptr, ptr %4, align 8
  call void @_ZN7rocksdb17FilterBlockReaderC2Ev(ptr noundef nonnull align 8 dereferenceable(8) %10) #4
  store ptr getelementptr inbounds inrange(-16, 88) ({ [13 x ptr] }, ptr @_ZTVN7rocksdb23FilterBlockReaderCommonINS_21ParsedFullFilterBlockEEE, i32 0, i32 0, i32 2), ptr %10, align 8, !tbaa !25
  %11 = getelementptr inbounds nuw %"class.rocksdb::FilterBlockReaderCommon", ptr %10, i32 0, i32 1
  %12 = load ptr, ptr %5, align 8, !tbaa !61
  store ptr %12, ptr %11, align 8, !tbaa !67
  %13 = getelementptr inbounds nuw %"class.rocksdb::FilterBlockReaderCommon", ptr %10, i32 0, i32 2
  %14 = load ptr, ptr %6, align 8, !tbaa !63
  call void @_ZN7rocksdb13CachableEntryINS_21ParsedFullFilterBlockEEC2EOS2_(ptr noundef nonnull align 8 dereferenceable(25) %13, ptr noundef nonnull align 8 dereferenceable(25) %14) #4
  %15 = getelementptr inbounds nuw %"class.rocksdb::FilterBlockReaderCommon", ptr %10, i32 0, i32 3
  store i64 0, ptr %15, align 8, !tbaa !74
  %16 = getelementptr inbounds nuw %"class.rocksdb::FilterBlockReaderCommon", ptr %10, i32 0, i32 4
  store i8 0, ptr %16, align 8, !tbaa !75
  call void @llvm.lifetime.start.p0(i64 8, ptr %7) #4
  %17 = invoke noundef ptr @_ZNK7rocksdb23FilterBlockReaderCommonINS_21ParsedFullFilterBlockEE22table_prefix_extractorEv(ptr noundef nonnull align 8 dereferenceable(57) %10)
          to label %18 unwind label %31

18:                                               ; preds = %3
  store ptr %17, ptr %7, align 8, !tbaa !19
  %19 = load ptr, ptr %7, align 8, !tbaa !19
  %20 = icmp ne ptr %19, null
  br i1 %20, label %21, label %35

21:                                               ; preds = %18
  %22 = load ptr, ptr %7, align 8, !tbaa !19
  %23 = getelementptr inbounds nuw %"class.rocksdb::FilterBlockReaderCommon", ptr %10, i32 0, i32 3
  %24 = load ptr, ptr %22, align 8, !tbaa !25
  %25 = getelementptr inbounds ptr, ptr %24, i64 22
  %26 = load ptr, ptr %25, align 8
  %27 = invoke noundef zeroext i1 %26(ptr noundef nonnull align 8 dereferenceable(32) %22, ptr noundef %23)
          to label %28 unwind label %31

28:                                               ; preds = %21
  %29 = getelementptr inbounds nuw %"class.rocksdb::FilterBlockReaderCommon", ptr %10, i32 0, i32 4
  %30 = zext i1 %27 to i8
  store i8 %30, ptr %29, align 8, !tbaa !75
  br label %35

31:                                               ; preds = %21, %3
  %32 = landingpad { ptr, i32 }
          cleanup
  %33 = extractvalue { ptr, i32 } %32, 0
  store ptr %33, ptr %8, align 8
  %34 = extractvalue { ptr, i32 } %32, 1
  store i32 %34, ptr %9, align 4
  call void @llvm.lifetime.end.p0(i64 8, ptr %7) #4
  call void @_ZN7rocksdb13CachableEntryINS_21ParsedFullFilterBlockEED2Ev(ptr noundef nonnull align 8 dereferenceable(25) %13) #4
  call void @_ZN7rocksdb17FilterBlockReaderD2Ev(ptr noundef nonnull align 8 dereferenceable(8) %10) #4
  br label %36

35:                                               ; preds = %28, %18
  call void @llvm.lifetime.end.p0(i64 8, ptr %7) #4
  ret void

36:                                               ; preds = %31
  %37 = load ptr, ptr %8, align 8
  %38 = load i32, ptr %9, align 4
  %39 = insertvalue { ptr, i32 } poison, ptr %37, 0
  %40 = insertvalue { ptr, i32 } %39, i32 %38, 1
  resume { ptr, i32 } %40
}

; Function Attrs: mustprogress uwtable
define void @_ZN7rocksdb21FullFilterBlockReaderC2EPKNS_15BlockBasedTableEONS_13CachableEntryINS_21ParsedFullFilterBlockEEE(ptr noundef nonnull align 8 dereferenceable(57) %0, ptr noundef %1, ptr noundef nonnull align 8 dereferenceable(25) %2) unnamed_addr #5 align 2 {
  %4 = alloca ptr, align 8
  %5 = alloca ptr, align 8
  %6 = alloca ptr, align 8
  store ptr %0, ptr %4, align 8, !tbaa !59
  store ptr %1, ptr %5, align 8, !tbaa !61
  store ptr %2, ptr %6, align 8, !tbaa !63
  %7 = load ptr, ptr %4, align 8
  %8 = load ptr, ptr %5, align 8, !tbaa !61
  %9 = load ptr, ptr %6, align 8, !tbaa !63
  call void @_ZN7rocksdb23FilterBlockReaderCommonINS_21ParsedFullFilterBlockEEC2EPKNS_15BlockBasedTableEONS_13CachableEntryIS1_EE(ptr noundef nonnull align 8 dereferenceable(57) %7, ptr noundef %8, ptr noundef nonnull align 8 dereferenceable(25) %9)
  store ptr getelementptr inbounds inrange(-16, 88) ({ [13 x ptr] }, ptr @_ZTVN7rocksdb21FullFilterBlockReaderE, i32 0, i32 0, i32 2), ptr %7, align 8, !tbaa !25
  ret void
}