; Function Attrs: mustprogress uwtable
define void @_ZN7rocksdb21FullFilterBlockReaderC2EPKNS_15BlockBasedTableEONS_13CachableEntryINS_21ParsedFullFilterBlockEEE(ptr noundef nonnull align 8 dereferenceable(57) initializes((0, 41), (48, 57)) %0, ptr noundef %1, ptr noundef nonnull align 8 captures(none) dereferenceable(25) %2) unnamed_addr #4 align 2 personality ptr @__gxx_personality_v0 {
  store ptr getelementptr inbounds nuw inrange(-16, 88) (i8, ptr @_ZTVN7rocksdb23FilterBlockReaderCommonINS_21ParsedFullFilterBlockEEE, i64 16), ptr %0, align 8, !tbaa !11
  %4 = getelementptr inbounds nuw i8, ptr %0, i64 8
  store ptr %1, ptr %4, align 8, !tbaa !43
  %5 = getelementptr inbounds nuw i8, ptr %0, i64 16
  %6 = load ptr, ptr %2, align 8, !tbaa !51
  store ptr %6, ptr %5, align 8, !tbaa !51
  %7 = getelementptr inbounds nuw i8, ptr %0, i64 24
  %8 = getelementptr inbounds nuw i8, ptr %2, i64 8
  %9 = load ptr, ptr %8, align 8, !tbaa !52
  store ptr %9, ptr %7, align 8, !tbaa !52
  %10 = getelementptr inbounds nuw i8, ptr %0, i64 32
  %11 = getelementptr inbounds nuw i8, ptr %2, i64 16
  %12 = load ptr, ptr %11, align 8, !tbaa !53
  store ptr %12, ptr %10, align 8, !tbaa !53
  %13 = getelementptr inbounds nuw i8, ptr %0, i64 40
  %14 = getelementptr inbounds nuw i8, ptr %2, i64 24
  %15 = load i8, ptr %14, align 8, !tbaa !54, !range !35, !noundef !36
  store i8 %15, ptr %13, align 8, !tbaa !54
  tail call void @llvm.memset.p0.i64(ptr noundef nonnull align 8 dereferenceable(25) %2, i8 0, i64 25, i1 false)
  %16 = getelementptr inbounds nuw i8, ptr %0, i64 48
  store i64 0, ptr %16, align 8, !tbaa !55
  %17 = getelementptr inbounds nuw i8, ptr %0, i64 56
  store i8 0, ptr %17, align 8, !tbaa !56
  %18 = invoke noundef ptr @_ZNK7rocksdb23FilterBlockReaderCommonINS_21ParsedFullFilterBlockEE22table_prefix_extractorEv(ptr noundef nonnull align 8 dereferenceable(57) %0)
          to label %19 unwind label %27

19:                                               ; preds = %3
  %.not.i = icmp eq ptr %18, null
  br i1 %.not.i, label %_ZN7rocksdb23FilterBlockReaderCommonINS_21ParsedFullFilterBlockEEC2EPKNS_15BlockBasedTableEONS_13CachableEntryIS1_EE.exit, label %20

20:                                               ; preds = %19
  %21 = load ptr, ptr %18, align 8, !tbaa !11
  %22 = getelementptr inbounds nuw i8, ptr %21, i64 176
  %23 = load ptr, ptr %22, align 8
  %24 = invoke noundef zeroext i1 %23(ptr noundef nonnull align 8 dereferenceable(32) %18, ptr noundef nonnull %16)
          to label %25 unwind label %27

25:                                               ; preds = %20
  %26 = zext i1 %24 to i8
  store i8 %26, ptr %17, align 8, !tbaa !56
  br label %_ZN7rocksdb23FilterBlockReaderCommonINS_21ParsedFullFilterBlockEEC2EPKNS_15BlockBasedTableEONS_13CachableEntryIS1_EE.exit

27:                                               ; preds = %20, %3
  %28 = landingpad { ptr, i32 }
          cleanup
  tail call void @_ZN7rocksdb13CachableEntryINS_21ParsedFullFilterBlockEED2Ev(ptr noundef nonnull align 8 dereferenceable(25) %5) #22
  resume { ptr, i32 } %28

_ZN7rocksdb23FilterBlockReaderCommonINS_21ParsedFullFilterBlockEEC2EPKNS_15BlockBasedTableEONS_13CachableEntryIS1_EE.exit: ; preds = %19, %25
  store ptr getelementptr inbounds nuw inrange(-16, 88) (i8, ptr @_ZTVN7rocksdb21FullFilterBlockReaderE, i64 16), ptr %0, align 8, !tbaa !11
  ret void
}